target datalayout = "e-m:e-p270:32:32-p271:32:32-p272:64:64-i64:64-i128:128-f80:128-n8:16:32:64-S128"
target triple = "x86_64-pc-linux-gnu"

%struct.FT_StreamRec_ = type { ptr, i64, i64, %union.FT_StreamDesc_, %union.FT_StreamDesc_, ptr, ptr, ptr, ptr, ptr }
%union.FT_StreamDesc_ = type { i64 }
%struct.FT_BZip2FileRec_ = type { ptr, ptr, ptr, %struct.bz_stream, [4096 x i8], [4096 x i8], i64, ptr, ptr, i8 }
%struct.bz_stream = type { ptr, i32, i32, i32, ptr, i32, i32, i32, ptr, ptr, ptr, ptr }

; Function Attrs: nounwind uwtable
define internal i32 @ft_bzip2_file_init(ptr noundef %0, ptr noundef %1, ptr noundef %2) #0 {
  %4 = alloca ptr, align 8
  %5 = alloca ptr, align 8
  %6 = alloca ptr, align 8
  %7 = alloca ptr, align 8
  %8 = alloca i32, align 4
  store ptr %0, ptr %4, align 8
  store ptr %1, ptr %5, align 8
  store ptr %2, ptr %6, align 8
  %9 = load ptr, ptr %4, align 8
  %10 = getelementptr inbounds %struct.FT_BZip2FileRec_, ptr %9, i32 0, i32 3
  store ptr %10, ptr %7, align 8
  store i32 0, ptr %8, align 4
  %11 = load ptr, ptr %5, align 8
  %12 = load ptr, ptr %4, align 8
  %13 = getelementptr inbounds %struct.FT_BZip2FileRec_, ptr %12, i32 0, i32 1
  store ptr %11, ptr %13, align 8
  %14 = load ptr, ptr %6, align 8
  %15 = load ptr, ptr %4, align 8
  %16 = getelementptr inbounds %struct.FT_BZip2FileRec_, ptr %15, i32 0, i32 0
  store ptr %14, ptr %16, align 8
  %17 = load ptr, ptr %5, align 8
  %18 = getelementptr inbounds %struct.FT_StreamRec_, ptr %17, i32 0, i32 7
  %19 = load ptr, ptr %18, align 8
  %20 = load ptr, ptr %4, align 8
  %21 = getelementptr inbounds %struct.FT_BZip2FileRec_, ptr %20, i32 0, i32 2
  store ptr %19, ptr %21, align 8
  %22 = load ptr, ptr %4, align 8
  %23 = getelementptr inbounds %struct.FT_BZip2FileRec_, ptr %22, i32 0, i32 5
  %24 = getelementptr inbounds [4096 x i8], ptr %23, i64 0, i64 0
  %25 = getelementptr inbounds i8, ptr %24, i64 4096
  %26 = load ptr, ptr %4, align 8
  %27 = getelementptr inbounds %struct.FT_BZip2FileRec_, ptr %26, i32 0, i32 8
  store ptr %25, ptr %27, align 8
  %28 = load ptr, ptr %4, align 8
  %29 = getelementptr inbounds %struct.FT_BZip2FileRec_, ptr %28, i32 0, i32 8
  %30 = load ptr, ptr %29, align 8
  %31 = load ptr, ptr %4, align 8
  %32 = getelementptr inbounds %struct.FT_BZip2FileRec_, ptr %31, i32 0, i32 7
  store ptr %30, ptr %32, align 8
  %33 = load ptr, ptr %4, align 8
  %34 = getelementptr inbounds %struct.FT_BZip2FileRec_, ptr %33, i32 0, i32 6
  store i64 0, ptr %34, align 8
  %35 = load ptr, ptr %4, align 8
  %36 = getelementptr inbounds %struct.FT_BZip2FileRec_, ptr %35, i32 0, i32 9
  store i8 0, ptr %36, align 8
  %37 = load ptr, ptr %6, align 8
  store ptr %37, ptr %5, align 8
  %38 = load ptr, ptr %5, align 8
  %39 = call i32 @ft_bzip2_check_header(ptr noundef %38)
  store i32 %39, ptr %8, align 4
  %40 = load i32, ptr %8, align 4
  %41 = icmp ne i32 %40, 0
  br i1 %41, label %42, label %43

42:                                               ; preds = %3
  br label %75

43:                                               ; preds = %3
  %44 = load ptr, ptr %5, align 8
  %45 = call i32 @FT_Stream_Seek(ptr noundef %44, i64 noundef 0)
  store i32 %45, ptr %8, align 4
  %46 = icmp ne i32 %45, 0
  br i1 %46, label %47, label %48

47:                                               ; preds = %43
  br label %75

48:                                               ; preds = %43
  %49 = load ptr, ptr %7, align 8
  %50 = getelementptr inbounds %struct.bz_stream, ptr %49, i32 0, i32 9
  store ptr @ft_bzip2_alloc, ptr %50, align 8
  %51 = load ptr, ptr %7, align 8
  %52 = getelementptr inbounds %struct.bz_stream, ptr %51, i32 0, i32 10
  store ptr @ft_bzip2_free, ptr %52, align 8
  %53 = load ptr, ptr %4, align 8
  %54 = getelementptr inbounds %struct.FT_BZip2FileRec_, ptr %53, i32 0, i32 2
  %55 = load ptr, ptr %54, align 8
  %56 = load ptr, ptr %7, align 8
  %57 = getelementptr inbounds %struct.bz_stream, ptr %56, i32 0, i32 11
  store ptr %55, ptr %57, align 8
  %58 = load ptr, ptr %7, align 8
  %59 = getelementptr inbounds %struct.bz_stream, ptr %58, i32 0, i32 1
  store i32 0, ptr %59, align 8
  %60 = load ptr, ptr %4, align 8
  %61 = getelementptr inbounds %struct.FT_BZip2FileRec_, ptr %60, i32 0, i32 5
  %62 = getelementptr inbounds [4096 x i8], ptr %61, i64 0, i64 0
  %63 = load ptr, ptr %7, align 8
  %64 = getelementptr inbounds %struct.bz_stream, ptr %63, i32 0, i32 0
  store ptr %62, ptr %64, align 8
  %65 = load ptr, ptr %7, align 8
  %66 = call i32 @BZ2_bzDecompressInit(ptr noundef %65, i32 noundef 0, i32 noundef 0)
  %67 = icmp ne i32 %66, 0
  br i1 %67, label %73, label %68

68:                                               ; preds = %48
  %69 = load ptr, ptr %7, align 8
  %70 = getelementptr inbounds %struct.bz_stream, ptr %69, i32 0, i32 0
  %71 = load ptr, ptr %70, align 8
  %72 = icmp ne ptr %71, null
  br i1 %72, label %74, label %73

73:                                               ; preds = %68, %48
  store i32 3, ptr %8, align 4
  br label %74

74:                                               ; preds = %73, %68
  br label %75

75:                                               ; preds = %74, %47, %42
  %76 = load i32, ptr %8, align 4
  ret i32 %76
}

; Function Attrs: nounwind uwtable
define internal i32 @ft_bzip2_check_header(ptr noundef %0) #0 {
  %2 = alloca ptr, align 8
  %3 = alloca i32, align 4
  %4 = alloca [4 x i8], align 1
  store ptr %0, ptr %2, align 8
  store i32 0, ptr %3, align 4
  %5 = load ptr, ptr %2, align 8
  %6 = call i32 @FT_Stream_Seek(ptr noundef %5, i64 noundef 0)
  store i32 %6, ptr %3, align 4
  %7 = icmp ne i32 %6, 0
  br i1 %7, label %13, label %8

8:                                                ; preds = %1
  %9 = load ptr, ptr %2, align 8
  %10 = getelementptr inbounds [4 x i8], ptr %4, i64 0, i64 0
  %11 = call i32 @FT_Stream_Read(ptr noundef %9, ptr noundef %10, i64 noundef 4)
  store i32 %11, ptr %3, align 4
  %12 = icmp ne i32 %11, 0
  br i1 %12, label %13, label %14

13:                                               ; preds = %8, %1
  br label %31

14:                                               ; preds = %8
  %15 = getelementptr inbounds [4 x i8], ptr %4, i64 0, i64 0
  %16 = load i8, ptr %15, align 1
  %17 = zext i8 %16 to i32
  %18 = icmp ne i32 %17, 66
  br i1 %18, label %29, label %19

19:                                               ; preds = %14
  %20 = getelementptr inbounds [4 x i8], ptr %4, i64 0, i64 1
  %21 = load i8, ptr %20, align 1
  %22 = zext i8 %21 to i32
  %23 = icmp ne i32 %22, 90
  br i1 %23, label %29, label %24

24:                                               ; preds = %19
  %25 = getelementptr inbounds [4 x i8], ptr %4, i64 0, i64 2
  %26 = load i8, ptr %25, align 1
  %27 = zext i8 %26 to i32
  %28 = icmp ne i32 %27, 104
  br i1 %28, label %29, label %30

29:                                               ; preds = %24, %19, %14
  store i32 3, ptr %3, align 4
  br label %31

30:                                               ; preds = %24
  br label %31

31:                                               ; preds = %30, %29, %13
  %32 = load i32, ptr %3, align 4
  ret i32 %32
}

; Function Attrs: nounwind uwtable
define i32 @FT_Stream_OpenBzip2(ptr noundef %0, ptr noundef %1) #0 {
  %3 = alloca ptr, align 8
  %4 = alloca ptr, align 8
  %5 = alloca i32, align 4
  %6 = alloca ptr, align 8
  %7 = alloca ptr, align 8
  store ptr %0, ptr %3, align 8
  store ptr %1, ptr %4, align 8
  store ptr null, ptr %7, align 8
  %8 = load ptr, ptr %3, align 8
  %9 = icmp ne ptr %8, null
  br i1 %9, label %10, label %13

10:                                               ; preds = %2
  %11 = load ptr, ptr %4, align 8
  %12 = icmp ne ptr %11, null
  br i1 %12, label %14, label %13

13:                                               ; preds = %10, %2
  store i32 40, ptr %5, align 4
  br label %59

14:                                               ; preds = %10
  %15 = load ptr, ptr %4, align 8
  %16 = getelementptr inbounds %struct.FT_StreamRec_, ptr %15, i32 0, i32 7
  %17 = load ptr, ptr %16, align 8
  store ptr %17, ptr %6, align 8
  %18 = load ptr, ptr %4, align 8
  %19 = call i32 @ft_bzip2_check_header(ptr noundef %18)
  store i32 %19, ptr %5, align 4
  %20 = load i32, ptr %5, align 4
  %21 = icmp ne i32 %20, 0
  br i1 %21, label %22, label %23

22:                                               ; preds = %14
  br label %59

23:                                               ; preds = %14
  %24 = load ptr, ptr %3, align 8
  call void @llvm.memset.p0.i64(ptr align 8 %24, i8 0, i64 80, i1 false)
  %25 = load ptr, ptr %6, align 8
  %26 = load ptr, ptr %3, align 8
  %27 = getelementptr inbounds %struct.FT_StreamRec_, ptr %26, i32 0, i32 7
  store ptr %25, ptr %27, align 8
  %28 = load ptr, ptr %6, align 8
  %29 = call ptr @ft_mem_qalloc(ptr noundef %28, i64 noundef 8328, ptr noundef %5)
  store ptr %29, ptr %7, align 8
  %30 = load i32, ptr %5, align 4
  %31 = icmp ne i32 %30, 0
  br i1 %31, label %48, label %32

32:                                               ; preds = %23
  %33 = load ptr, ptr %7, align 8
  %34 = load ptr, ptr %3, align 8
  %35 = load ptr, ptr %4, align 8
  %36 = call i32 @ft_bzip2_file_init(ptr noundef %33, ptr noundef %34, ptr noundef %35)
  store i32 %36, ptr %5, align 4
  %37 = load i32, ptr %5, align 4
  %38 = icmp ne i32 %37, 0
  br i1 %38, label %39, label %44

39:                                               ; preds = %32
  br label %40

40:                                               ; preds = %39
  %41 = load ptr, ptr %6, align 8
  %42 = load ptr, ptr %7, align 8
  call void @ft_mem_free(ptr noundef %41, ptr noundef %42)
  store ptr null, ptr %7, align 8
  br label %43

43:                                               ; preds = %40
  br label %59

44:                                               ; preds = %32
  %45 = load ptr, ptr %7, align 8
  %46 = load ptr, ptr %3, align 8
  %47 = getelementptr inbounds %struct.FT_StreamRec_, ptr %46, i32 0, i32 3
  store ptr %45, ptr %47, align 8
  br label %48

48:                                               ; preds = %44, %23
  %49 = load ptr, ptr %3, align 8
  %50 = getelementptr inbounds %struct.FT_StreamRec_, ptr %49, i32 0, i32 1
  store i64 2147483647, ptr %50, align 8
  %51 = load ptr, ptr %3, align 8
  %52 = getelementptr inbounds %struct.FT_StreamRec_, ptr %51, i32 0, i32 2
  store i64 0, ptr %52, align 8
  %53 = load ptr, ptr %3, align 8
  %54 = getelementptr inbounds %struct.FT_StreamRec_, ptr %53, i32 0, i32 0
  store ptr null, ptr %54, align 8
  %55 = load ptr, ptr %3, align 8
  %56 = getelementptr inbounds %struct.FT_StreamRec_, ptr %55, i32 0, i32 5
  store ptr @ft_bzip2_stream_io, ptr %56, align 8
  %57 = load ptr, ptr %3, align 8
  %58 = getelementptr inbounds %struct.FT_StreamRec_, ptr %57, i32 0, i32 6
  store ptr @ft_bzip2_stream_close, ptr %58, align 8
  br label %59

59:                                               ; preds = %48, %43, %22, %13
  %60 = load i32, ptr %5, align 4
  ret i32 %60
}