; Function Attrs: nounwind uwtable
define i32 @FT_Stream_OpenBzip2(ptr noundef %0, ptr noundef %1) local_unnamed_addr #0 {
  %3 = alloca [4 x i8], align 1
  %4 = alloca [4 x i8], align 1
  %5 = alloca i32, align 4
  %6 = icmp ne ptr %0, null
  %7 = icmp ne ptr %1, null
  %or.cond = and i1 %6, %7
  br i1 %or.cond, label %8, label %68

8:                                                ; preds = %2
  %9 = getelementptr inbounds i8, ptr %1, i64 56
  %10 = load ptr, ptr %9, align 8
  call void @llvm.lifetime.start.p0(i64 4, ptr nonnull %4)
  %11 = tail call i32 @FT_Stream_Seek(ptr noundef nonnull %1, i64 noundef 0) #6
  %.not.i = icmp eq i32 %11, 0
  br i1 %.not.i, label %12, label %ft_bzip2_check_header.exit.thread

12:                                               ; preds = %8
  %13 = call i32 @FT_Stream_Read(ptr noundef nonnull %1, ptr noundef nonnull %4, i64 noundef 4) #6
  %.not11.i = icmp eq i32 %13, 0
  br i1 %.not11.i, label %14, label %ft_bzip2_check_header.exit.thread

14:                                               ; preds = %12
  %15 = load i8, ptr %4, align 1
  %16 = icmp ne i8 %15, 66
  %17 = getelementptr inbounds i8, ptr %4, i64 1
  %18 = load i8, ptr %17, align 1
  %19 = icmp ne i8 %18, 90
  %or.cond.i = select i1 %16, i1 true, i1 %19
  %20 = getelementptr inbounds i8, ptr %4, i64 2
  %21 = load i8, ptr %20, align 1
  %22 = icmp ne i8 %21, 104
  %or.cond7.i = select i1 %or.cond.i, i1 true, i1 %22
  br i1 %or.cond7.i, label %ft_bzip2_check_header.exit.thread, label %23

ft_bzip2_check_header.exit.thread:                ; preds = %8, %12, %14
  %.0.i.ph = phi i32 [ %13, %12 ], [ %11, %8 ], [ 3, %14 ]
  call void @llvm.lifetime.end.p0(i64 4, ptr nonnull %4)
  br label %68

23:                                               ; preds = %14
  call void @llvm.lifetime.end.p0(i64 4, ptr nonnull %4)
  store i32 0, ptr %5, align 4
  call void @llvm.memset.p0.i64(ptr noundef nonnull align 8 dereferenceable(80) %0, i8 0, i64 80, i1 false)
  %24 = getelementptr inbounds i8, ptr %0, i64 56
  store ptr %10, ptr %24, align 8
  %25 = call ptr @ft_mem_qalloc(ptr noundef %10, i64 noundef 8328, ptr noundef nonnull %5) #6
  %26 = load i32, ptr %5, align 4
  %.not22 = icmp eq i32 %26, 0
  br i1 %.not22, label %27, label %63

27:                                               ; preds = %23
  %28 = getelementptr inbounds i8, ptr %25, i64 24
  %29 = getelementptr inbounds i8, ptr %25, i64 8
  store ptr %0, ptr %29, align 8
  store ptr %1, ptr %25, align 8
  %30 = load ptr, ptr %24, align 8
  %31 = getelementptr inbounds i8, ptr %25, i64 16
  store ptr %30, ptr %31, align 8
  %32 = getelementptr inbounds i8, ptr %25, i64 4200
  %33 = getelementptr inbounds i8, ptr %25, i64 8296
  %34 = getelementptr inbounds i8, ptr %25, i64 8312
  store ptr %33, ptr %34, align 8
  %35 = getelementptr inbounds i8, ptr %25, i64 8304
  store ptr %33, ptr %35, align 8
  store i64 0, ptr %33, align 8
  %36 = getelementptr inbounds i8, ptr %25, i64 8320
  store i8 0, ptr %36, align 8
  call void @llvm.lifetime.start.p0(i64 4, ptr nonnull %3)
  %37 = call i32 @FT_Stream_Seek(ptr noundef nonnull %1, i64 noundef 0) #6
  %.not.i.i = icmp eq i32 %37, 0
  br i1 %.not.i.i, label %38, label %ft_bzip2_check_header.exit.thread.i

38:                                               ; preds = %27
  %39 = call i32 @FT_Stream_Read(ptr noundef nonnull %1, ptr noundef nonnull %3, i64 noundef 4) #6
  %.not11.i.i = icmp eq i32 %39, 0
  br i1 %.not11.i.i, label %40, label %ft_bzip2_check_header.exit.thread.i

40:                                               ; preds = %38
  %41 = load i8, ptr %3, align 1
  %42 = icmp ne i8 %41, 66
  %43 = getelementptr inbounds i8, ptr %3, i64 1
  %44 = load i8, ptr %43, align 1
  %45 = icmp ne i8 %44, 90
  %or.cond.i.i = select i1 %42, i1 true, i1 %45
  %46 = getelementptr inbounds i8, ptr %3, i64 2
  %47 = load i8, ptr %46, align 1
  %48 = icmp ne i8 %47, 104
  %or.cond7.i.i = select i1 %or.cond.i.i, i1 true, i1 %48
  br i1 %or.cond7.i.i, label %ft_bzip2_check_header.exit.thread.i, label %49

ft_bzip2_check_header.exit.thread.i:              ; preds = %40, %38, %27
  %.0.i.ph.i = phi i32 [ %39, %38 ], [ %37, %27 ], [ 3, %40 ]
  call void @llvm.lifetime.end.p0(i64 4, ptr nonnull %3)
  br label %60

49:                                               ; preds = %40
  call void @llvm.lifetime.end.p0(i64 4, ptr nonnull %3)
  %50 = call i32 @FT_Stream_Seek(ptr noundef nonnull %1, i64 noundef 0) #6
  %.not28.i = icmp eq i32 %50, 0
  br i1 %.not28.i, label %51, label %60

51:                                               ; preds = %49
  %52 = getelementptr inbounds i8, ptr %25, i64 80
  store ptr @ft_bzip2_alloc, ptr %52, align 8
  %53 = getelementptr inbounds i8, ptr %25, i64 88
  store ptr @ft_bzip2_free, ptr %53, align 8
  %54 = load ptr, ptr %31, align 8
  %55 = getelementptr inbounds i8, ptr %25, i64 96
  store ptr %54, ptr %55, align 8
  %56 = getelementptr inbounds i8, ptr %25, i64 32
  store i32 0, ptr %56, align 8
  store ptr %32, ptr %28, align 8
  %57 = call i32 @BZ2_bzDecompressInit(ptr noundef nonnull %28, i32 noundef 0, i32 noundef 0) #6
  %.not29.i = icmp eq i32 %57, 0
  br i1 %.not29.i, label %58, label %60

58:                                               ; preds = %51
  %59 = load ptr, ptr %28, align 8
  %.not30.i = icmp eq ptr %59, null
  br i1 %.not30.i, label %60, label %61

60:                                               ; preds = %51, %58, %49, %ft_bzip2_check_header.exit.thread.i
  %.0.i24.ph = phi i32 [ %.0.i.ph.i, %ft_bzip2_check_header.exit.thread.i ], [ %50, %49 ], [ 3, %58 ], [ 3, %51 ]
  store i32 %.0.i24.ph, ptr %5, align 4
  call void @ft_mem_free(ptr noundef %10, ptr noundef nonnull %25) #6
  %.pre = load i32, ptr %5, align 4
  br label %68

61:                                               ; preds = %58
  %62 = getelementptr inbounds i8, ptr %0, i64 24
  store ptr %25, ptr %62, align 8
  br label %63

63:                                               ; preds = %61, %23
  %64 = getelementptr inbounds i8, ptr %0, i64 8
  store i64 2147483647, ptr %64, align 8
  %65 = getelementptr inbounds i8, ptr %0, i64 16
  store i64 0, ptr %65, align 8
  store ptr null, ptr %0, align 8
  %66 = getelementptr inbounds i8, ptr %0, i64 40
  store ptr @ft_bzip2_stream_io, ptr %66, align 8
  %67 = getelementptr inbounds i8, ptr %0, i64 48
  store ptr @ft_bzip2_stream_close, ptr %67, align 8
  br label %68

68:                                               ; preds = %2, %ft_bzip2_check_header.exit.thread, %63, %60
  %69 = phi i32 [ %.0.i.ph, %ft_bzip2_check_header.exit.thread ], [ %26, %63 ], [ %.pre, %60 ], [ 40, %2 ]
  ret i32 %69
}